(lp0
cnumpy.core.multiarray
scalar
p1
(cnumpy
dtype
p2
(S'f8'
p3
I0
I1
tp4
Rp5
(I3
S'<'
p6
NNNI-1
I-1
I0
tp7
bS'\xbe\xe3mgV\xdbU@'
p8
tp9
Rp10
ag1
(g5
S'\xb2LN\x12k\xdbU@'
p11
tp12
Rp13
ag1
(g5
S'h\x81:iQ\xdbU@'
p14
tp15
Rp16
ag1
(g5
S'\xe1)\xa7\xc1k\xdbU@'
p17
tp18
Rp19
ag1
(g5
S'Q\xc7\x10\xd2k\xdbU@'
p20
tp21
Rp22
a.