(lp0
cnumpy.core.multiarray
scalar
p1
(cnumpy
dtype
p2
(S'f8'
p3
I0
I1
tp4
Rp5
(I3
S'<'
p6
NNNI-1
I-1
I0
tp7
bS'\x8dq\xbb\xf6R\xacT@'
p8
tp9
Rp10
ag1
(g5
S'_\xfa\x02eW\xacT@'
p11
tp12
Rp13
ag1
(g5
S'\x01\xfc$\xa0U\xacT@'
p14
tp15
Rp16
ag1
(g5
S'/2+\x0f@\xacT@'
p17
tp18
Rp19
ag1
(g5
S'O-\x1e$T\xacT@'
p20
tp21
Rp22
a.