(lp0
cnumpy.core.multiarray
scalar
p1
(cnumpy
dtype
p2
(S'f8'
p3
I0
I1
tp4
Rp5
(I3
S'<'
p6
NNNI-1
I-1
I0
tp7
bS'#2\xac\x84K\xdbZ@'
p8
tp9
Rp10
ag1
(g5
S'\xc2\xbe&\x91,\xdbZ@'
p11
tp12
Rp13
ag1
(g5
S'\xe95\xbdRK\xdbZ@'
p14
tp15
Rp16
ag1
(g5
S'\xd4\xe3\x84\x10H\xdbZ@'
p17
tp18
Rp19
ag1
(g5
S'K\x9a\xf8\xe9A\xdbZ@'
p20
tp21
Rp22
a.