(lp0
cnumpy.core.multiarray
scalar
p1
(cnumpy
dtype
p2
(S'f8'
p3
I0
I1
tp4
Rp5
(I3
S'<'
p6
NNNI-1
I-1
I0
tp7
bS'\xb9\x1a\x99\r\xddqX@'
p8
tp9
Rp10
ag1
(g5
S'\x90v&\x85\xc1qX@'
p11
tp12
Rp13
ag1
(g5
S'B\xd6\xbe,\xc0qX@'
p14
tp15
Rp16
ag1
(g5
S'\xc2\xacrq\xe3qX@'
p17
tp18
Rp19
ag1
(g5
S'cz9M\xe3qX@'
p20
tp21
Rp22
a.